; Function Attrs: mustprogress uwtable
define void @_ZN15AlignPairWidget18cleanDataOnClosingEi(ptr noundef nonnull align 8 dereferenceable(1367) %0, i32 noundef %1) local_unnamed_addr #9 align 2 {
  %3 = getelementptr inbounds i8, ptr %0, i64 1288
  %4 = load ptr, ptr %3, align 8
  %5 = icmp eq ptr %4, null
  br i1 %5, label %8, label %6

6:                                                ; preds = %2
  %7 = tail call noundef ptr @_ZNK9QGLWidget7contextEv(ptr noundef nonnull align 8 dereferenceable(48) %0)
  tail call void @_ZN26MLSceneGLSharedDataContext10removeViewEP10QGLContext(ptr noundef nonnull align 8 dereferenceable(168) %4, ptr noundef %7)
  br label %8

8:                                                ; preds = %2, %6
  ret void
}